; Function Attrs: nounwind uwtable
define range(i32 -12, 1) i32 @ff_init_desc_hscale(ptr noundef writeonly captures(none) %0, ptr noundef %1, ptr noundef %2, ptr noundef %3, ptr noundef %4, i32 noundef %5, i32 noundef %6) local_unnamed_addr #0 {
  %8 = tail call noalias ptr @av_malloc(i64 noundef 24) #6
  %.not = icmp eq ptr %8, null
  br i1 %.not, label %39, label %9

9:                                                ; preds = %7
  store ptr %3, ptr %8, align 8, !tbaa !53
  %10 = getelementptr inbounds nuw i8, ptr %8, i64 8
  store ptr %4, ptr %10, align 8, !tbaa !55
  %11 = getelementptr inbounds nuw i8, ptr %8, i64 16
  store i32 %5, ptr %11, align 8, !tbaa !56
  %12 = getelementptr inbounds nuw i8, ptr %8, i64 20
  store i32 %6, ptr %12, align 4, !tbaa !57
  %13 = getelementptr inbounds nuw i8, ptr %0, i64 24
  store ptr %8, ptr %13, align 8, !tbaa !10
  %14 = getelementptr inbounds nuw i8, ptr %1, i64 20
  %15 = load i32, ptr %14, align 4, !tbaa !14
  %16 = tail call ptr @av_pix_fmt_desc_get(i32 noundef %15) #6
  %.not.i21 = icmp eq ptr %16, null
  br i1 %.not.i21, label %17, label %18

17:                                               ; preds = %9
  tail call void (ptr, i32, ptr, ...) @av_log(ptr noundef null, i32 noundef 0, ptr noundef nonnull @.str, ptr noundef nonnull @.str.1, ptr noundef nonnull @.str.2, i32 noundef 881) #6
  tail call void @abort() #7
  unreachable

18:                                               ; preds = %9
  %19 = icmp eq i32 %15, 11
  br i1 %19, label %isALPHA.exit23.thread, label %isALPHA.exit23

isALPHA.exit23:                                   ; preds = %18
  %20 = getelementptr inbounds nuw i8, ptr %16, i64 16
  %21 = load i64, ptr %20, align 8, !tbaa !16
  %22 = and i64 %21, 128
  %.not20 = icmp eq i64 %22, 0
  br i1 %.not20, label %isALPHA.exit, label %isALPHA.exit23.thread

isALPHA.exit23.thread:                            ; preds = %18, %isALPHA.exit23
  %23 = getelementptr inbounds nuw i8, ptr %2, i64 20
  %24 = load i32, ptr %23, align 4, !tbaa !14
  %25 = tail call ptr @av_pix_fmt_desc_get(i32 noundef %24) #6
  %.not.i = icmp eq ptr %25, null
  br i1 %.not.i, label %26, label %27

26:                                               ; preds = %isALPHA.exit23.thread
  tail call void (ptr, i32, ptr, ...) @av_log(ptr noundef null, i32 noundef 0, ptr noundef nonnull @.str, ptr noundef nonnull @.str.1, ptr noundef nonnull @.str.2, i32 noundef 881) #6
  tail call void @abort() #7
  unreachable

27:                                               ; preds = %isALPHA.exit23.thread
  %28 = icmp eq i32 %24, 11
  br i1 %28, label %isALPHA.exit, label %29

29:                                               ; preds = %27
  %30 = getelementptr inbounds nuw i8, ptr %25, i64 16
  %31 = load i64, ptr %30, align 8, !tbaa !16
  %32 = trunc i64 %31 to i32
  %33 = lshr i32 %32, 7
  %34 = and i32 %33, 1
  br label %isALPHA.exit

isALPHA.exit:                                     ; preds = %29, %27, %isALPHA.exit23
  %35 = phi i32 [ 0, %isALPHA.exit23 ], [ %34, %29 ], [ 1, %27 ]
  %36 = getelementptr inbounds nuw i8, ptr %0, i64 16
  store i32 %35, ptr %36, align 8, !tbaa !20
  store ptr %1, ptr %0, align 8, !tbaa !21
  %37 = getelementptr inbounds nuw i8, ptr %0, i64 8
  store ptr %2, ptr %37, align 8, !tbaa !22
  %38 = getelementptr inbounds nuw i8, ptr %0, i64 32
  store ptr @lum_h_scale, ptr %38, align 8, !tbaa !23
  br label %39

39:                                               ; preds = %7, %isALPHA.exit
  %.0 = phi i32 [ 0, %isALPHA.exit ], [ -12, %7 ]
  ret i32 %.0
}